target datalayout = "e-m:e-p270:32:32-p271:32:32-p272:64:64-i64:64-i128:128-f80:128-n8:16:32:64-S128"
target triple = "x86_64-pc-linux-gnu"

; Function Attrs: mustprogress nounwind uwtable
define hidden noundef zeroext i1 @_ZN12smt_renaming8is_legalEc(ptr noundef nonnull align 8 dereferenceable(48) %0, i8 noundef signext %1) #6 align 2 {
  %3 = alloca ptr, align 8
  %4 = alloca i8, align 1
  store ptr %0, ptr %3, align 8, !tbaa !3
  store i8 %1, ptr %4, align 1, !tbaa !12
  %5 = load i8, ptr %4, align 1, !tbaa !12
  %6 = sext i8 %5 to i32
  %7 = icmp eq i32 %6, 46
  br i1 %7, label %29, label %8

8:                                                ; preds = %2
  %9 = load i8, ptr %4, align 1, !tbaa !12
  %10 = sext i8 %9 to i32
  %11 = icmp eq i32 %10, 95
  br i1 %11, label %29, label %12

12:                                               ; preds = %8
  %13 = load i8, ptr %4, align 1, !tbaa !12
  %14 = sext i8 %13 to i32
  %15 = icmp eq i32 %14, 39
  br i1 %15, label %29, label %16

16:                                               ; preds = %12
  %17 = load i8, ptr %4, align 1, !tbaa !12
  %18 = sext i8 %17 to i32
  %19 = icmp eq i32 %18, 63
  br i1 %19, label %29, label %20

20:                                               ; preds = %16
  %21 = load i8, ptr %4, align 1, !tbaa !12
  %22 = sext i8 %21 to i32
  %23 = icmp eq i32 %22, 33
  br i1 %23, label %29, label %24

24:                                               ; preds = %20
  %25 = load i8, ptr %4, align 1, !tbaa !12
  %26 = sext i8 %25 to i32
  %27 = call i32 @isalnum(i32 noundef %26) #21
  %28 = icmp ne i32 %27, 0
  br label %29

29:                                               ; preds = %24, %20, %16, %12, %8, %2
  %30 = phi i1 [ true, %20 ], [ true, %16 ], [ true, %12 ], [ true, %8 ], [ true, %2 ], [ %28, %24 ]
  ret i1 %30
}

; Function Attrs: mustprogress nounwind uwtable
define hidden noundef zeroext i1 @_ZN12smt_renaming12is_numericalEPKc(ptr noundef nonnull align 8 dereferenceable(48) %0, ptr noundef %1) #6 align 2 {
  %3 = alloca i1, align 1
  %4 = alloca ptr, align 8
  %5 = alloca ptr, align 8
  store ptr %0, ptr %4, align 8, !tbaa !3
  store ptr %1, ptr %5, align 8, !tbaa !10
  br label %6

6:                                                ; preds = %17, %2
  %7 = load ptr, ptr %5, align 8, !tbaa !10
  %8 = load i8, ptr %7, align 1, !tbaa !12
  %9 = icmp ne i8 %8, 0
  br i1 %9, label %10, label %20

10:                                               ; preds = %6
  %11 = load ptr, ptr %5, align 8, !tbaa !10
  %12 = load i8, ptr %11, align 1, !tbaa !12
  %13 = sext i8 %12 to i32
  %14 = call i32 @isdigit(i32 noundef %13) #21
  %15 = icmp ne i32 %14, 0
  br i1 %15, label %17, label %16

16:                                               ; preds = %10
  store i1 false, ptr %3, align 1
  br label %21

17:                                               ; preds = %10
  %18 = load ptr, ptr %5, align 8, !tbaa !10
  %19 = getelementptr inbounds nuw i8, ptr %18, i32 1
  store ptr %19, ptr %5, align 8, !tbaa !10
  br label %6, !llvm.loop !29

20:                                               ; preds = %6
  store i1 true, ptr %3, align 1
  br label %21

21:                                               ; preds = %20, %16
  %22 = load i1, ptr %3, align 1
  ret i1 %22
}

; Function Attrs: mustprogress nounwind uwtable
define hidden noundef zeroext i1 @_ZN12smt_renaming12all_is_legalEPKc(ptr noundef nonnull align 8 dereferenceable(48) %0, ptr noundef %1) #6 align 2 {
  %3 = alloca i1, align 1
  %4 = alloca ptr, align 8
  %5 = alloca ptr, align 8
  store ptr %0, ptr %4, align 8, !tbaa !3
  store ptr %1, ptr %5, align 8, !tbaa !10
  %6 = load ptr, ptr %4, align 8
  %7 = load ptr, ptr %5, align 8, !tbaa !10
  %8 = icmp ne ptr %7, null
  br i1 %8, label %10, label %9

9:                                                ; preds = %2
  store i1 false, ptr %3, align 1
  br label %28

10:                                               ; preds = %2
  %11 = load ptr, ptr %5, align 8, !tbaa !10
  %12 = call noundef zeroext i1 @_ZN12smt_renaming12is_numericalEPKc(ptr noundef nonnull align 8 dereferenceable(48) %6, ptr noundef %11)
  br i1 %12, label %13, label %14

13:                                               ; preds = %10
  store i1 false, ptr %3, align 1
  br label %28

14:                                               ; preds = %10
  br label %15

15:                                               ; preds = %24, %14
  %16 = load ptr, ptr %5, align 8, !tbaa !10
  %17 = load i8, ptr %16, align 1, !tbaa !12
  %18 = icmp ne i8 %17, 0
  br i1 %18, label %19, label %27

19:                                               ; preds = %15
  %20 = load ptr, ptr %5, align 8, !tbaa !10
  %21 = load i8, ptr %20, align 1, !tbaa !12
  %22 = call noundef zeroext i1 @_ZN12smt_renaming8is_legalEc(ptr noundef nonnull align 8 dereferenceable(48) %6, i8 noundef signext %21)
  br i1 %22, label %24, label %23

23:                                               ; preds = %19
  store i1 false, ptr %3, align 1
  br label %28

24:                                               ; preds = %19
  %25 = load ptr, ptr %5, align 8, !tbaa !10
  %26 = getelementptr inbounds nuw i8, ptr %25, i32 1
  store ptr %26, ptr %5, align 8, !tbaa !10
  br label %15, !llvm.loop !24

27:                                               ; preds = %15
  store i1 true, ptr %3, align 1
  br label %28

28:                                               ; preds = %27, %23, %13, %9
  %29 = load i1, ptr %3, align 1
  ret i1 %29
}