; Function Attrs: mustprogress nofree nounwind willreturn memory(read) uwtable
define hidden noundef zeroext i1 @_ZN12smt_renaming12all_is_legalEPKc(ptr noundef nonnull readnone align 8 captures(none) dereferenceable(48) %0, ptr noundef readonly captures(address_is_null) %1) local_unnamed_addr #7 align 2 {
  %.not = icmp eq ptr %1, null
  br i1 %.not, label %.loopexit, label %.preheader12

.preheader12:                                     ; preds = %2, %.preheader12
  %.0.i = phi ptr [ %6, %.preheader12 ], [ %1, %2 ]
  %3 = load i8, ptr %.0.i, align 1, !tbaa !3
  %4 = sext i8 %3 to i32
  %5 = add nsw i32 %4, -58
  %isdigit.i = icmp ult i32 %5, -10
  %6 = getelementptr inbounds nuw i8, ptr %.0.i, i64 1
  br i1 %isdigit.i, label %_ZN12smt_renaming12is_numericalEPKc.exit, label %.preheader12, !llvm.loop !11

_ZN12smt_renaming12is_numericalEPKc.exit:         ; preds = %.preheader12
  %.not.i = icmp eq i8 %3, 0
  br i1 %.not.i, label %.loopexit, label %.preheader

.preheader:                                       ; preds = %_ZN12smt_renaming12is_numericalEPKc.exit, %_ZN12smt_renaming8is_legalEc.exit.thread
  %.0 = phi ptr [ %10, %_ZN12smt_renaming8is_legalEc.exit.thread ], [ %1, %_ZN12smt_renaming12is_numericalEPKc.exit ]
  %7 = load i8, ptr %.0, align 1, !tbaa !3
  switch i8 %7, label %_ZN12smt_renaming8is_legalEc.exit [
    i8 0, label %.loopexit
    i8 95, label %_ZN12smt_renaming8is_legalEc.exit.thread
    i8 63, label %_ZN12smt_renaming8is_legalEc.exit.thread
    i8 46, label %_ZN12smt_renaming8is_legalEc.exit.thread
    i8 39, label %_ZN12smt_renaming8is_legalEc.exit.thread
    i8 33, label %_ZN12smt_renaming8is_legalEc.exit.thread
  ]

_ZN12smt_renaming8is_legalEc.exit:                ; preds = %.preheader
  %8 = sext i8 %7 to i32
  %9 = tail call i32 @isalnum(i32 noundef %8) #25
  %.not11 = icmp eq i32 %9, 0
  br i1 %.not11, label %.loopexit, label %_ZN12smt_renaming8is_legalEc.exit.thread

_ZN12smt_renaming8is_legalEc.exit.thread:         ; preds = %.preheader, %.preheader, %.preheader, %.preheader, %.preheader, %_ZN12smt_renaming8is_legalEc.exit
  %10 = getelementptr inbounds nuw i8, ptr %.0, i64 1
  br label %.preheader, !llvm.loop !12

.loopexit:                                        ; preds = %.preheader, %_ZN12smt_renaming8is_legalEc.exit, %_ZN12smt_renaming12is_numericalEPKc.exit, %2
  %.07 = phi i1 [ false, %2 ], [ false, %_ZN12smt_renaming12is_numericalEPKc.exit ], [ true, %.preheader ], [ false, %_ZN12smt_renaming8is_legalEc.exit ]
  ret i1 %.07
}